; Function Attrs: mustprogress nounwind uwtable
define internal fastcc noundef zeroext i1 @_ZN6snappyL18InternalUncompressINS_28SnappyDecompressionValidatorEEEbPNS_6SourceEPT_(ptr noundef %r, ptr noundef %writer) unnamed_addr #2 {
entry:
  %n.i = alloca i64, align 8
  %decompressor = alloca %"class.snappy::SnappyDecompressor", align 8
  store ptr %r, ptr %decompressor, align 8
  %ip_.i = getelementptr inbounds i8, ptr %decompressor, i64 8
  %peeked_.i = getelementptr inbounds i8, ptr %decompressor, i64 32
  store i32 0, ptr %peeked_.i, align 8
  %eof_.i = getelementptr inbounds i8, ptr %decompressor, i64 36
  store i8 0, ptr %eof_.i, align 4
  call void @llvm.memset.p0.i64(ptr noundef nonnull align 8 dereferenceable(16) %ip_.i, i8 0, i64 16, i1 false)
  call void @llvm.lifetime.start.p0(i64 8, ptr nonnull %n.i)
  br label %if.end.i

while.body.i:                                     ; preds = %if.end11.i
  %indvars.iv.next.i = add nuw nsw i64 %indvars.iv.i, 7
  %cmp.i = icmp ugt i64 %indvars.iv.i, 24
  br i1 %cmp.i, label %_ZN6snappy18SnappyDecompressor22ReadUncompressedLengthEPj.exit.thread, label %if.end.i, !llvm.loop !20

if.end.i:                                         ; preds = %while.body.i, %entry
  %uncompressed_len.0 = phi i32 [ 0, %entry ], [ %or.i, %while.body.i ]
  %indvars.iv.i = phi i64 [ 0, %entry ], [ %indvars.iv.next.i, %while.body.i ]
  %vtable.i = load ptr, ptr %r, align 8
  %vfn.i = getelementptr inbounds i8, ptr %vtable.i, i64 24
  %0 = load ptr, ptr %vfn.i, align 8
  %call.i = call noundef ptr %0(ptr noundef nonnull align 8 dereferenceable(8) %r, ptr noundef nonnull %n.i) #19
  %1 = load i64, ptr %n.i, align 8
  %cmp2.i = icmp eq i64 %1, 0
  br i1 %cmp2.i, label %_ZN6snappy18SnappyDecompressor22ReadUncompressedLengthEPj.exit.thread, label %if.end4.i

if.end4.i:                                        ; preds = %if.end.i
  %2 = load i8, ptr %call.i, align 1
  %vtable6.i = load ptr, ptr %r, align 8
  %vfn7.i = getelementptr inbounds i8, ptr %vtable6.i, i64 32
  %3 = load ptr, ptr %vfn7.i, align 8
  call void %3(ptr noundef nonnull align 8 dereferenceable(8) %r, i64 noundef 1) #19
  %4 = and i8 %2, 127
  %arrayidx.i.i = getelementptr inbounds [32 x i8], ptr @_ZZN6snappyL18LeftShiftOverflowsEhjE5masks, i64 0, i64 %indvars.iv.i
  %5 = load i8, ptr %arrayidx.i.i, align 1
  %and1.i.i = and i8 %5, %4
  %cmp.i.not.i = icmp eq i8 %and1.i.i, 0
  br i1 %cmp.i.not.i, label %if.end11.i, label %_ZN6snappy18SnappyDecompressor22ReadUncompressedLengthEPj.exit.thread

if.end11.i:                                       ; preds = %if.end4.i
  %and.i = zext nneg i8 %4 to i32
  %6 = trunc i64 %indvars.iv.i to i32
  %shl.i = shl i32 %and.i, %6
  %or.i = or i32 %shl.i, %uncompressed_len.0
  %cmp13.i = icmp sgt i8 %2, -1
  br i1 %cmp13.i, label %if.end, label %while.body.i

_ZN6snappy18SnappyDecompressor22ReadUncompressedLengthEPj.exit.thread: ; preds = %while.body.i, %if.end.i, %if.end4.i
  call void @llvm.lifetime.end.p0(i64 8, ptr nonnull %n.i)
  br label %cleanup

if.end:                                           ; preds = %if.end11.i
  call void @llvm.lifetime.end.p0(i64 8, ptr nonnull %n.i)
  %vtable = load ptr, ptr %r, align 8
  %vfn = getelementptr inbounds i8, ptr %vtable, i64 16
  %7 = load ptr, ptr %vfn, align 8
  %call1 = call noundef i64 %7(ptr noundef nonnull align 8 dereferenceable(8) %r) #19
  %conv1.i = zext i32 %or.i to i64
  store i64 %conv1.i, ptr %writer, align 8
  call void @_ZN6snappy18SnappyDecompressor17DecompressAllTagsINS_28SnappyDecompressionValidatorEEEvPT_(ptr noundef nonnull align 8 dereferenceable(42) %decompressor, ptr noundef nonnull %writer)
  %8 = load i8, ptr %eof_.i, align 4
  %9 = and i8 %8, 1
  %tobool.i.not.i = icmp eq i8 %9, 0
  br i1 %tobool.i.not.i, label %cleanup, label %land.rhs.i

land.rhs.i:                                       ; preds = %if.end
  %10 = load i64, ptr %writer, align 8
  %produced_.i.i = getelementptr inbounds i8, ptr %writer, i64 8
  %11 = load i64, ptr %produced_.i.i, align 8
  %cmp.i.i = icmp eq i64 %10, %11
  br label %cleanup

cleanup:                                          ; preds = %land.rhs.i, %if.end, %_ZN6snappy18SnappyDecompressor22ReadUncompressedLengthEPj.exit.thread
  %retval.0 = phi i1 [ false, %_ZN6snappy18SnappyDecompressor22ReadUncompressedLengthEPj.exit.thread ], [ false, %if.end ], [ %cmp.i.i, %land.rhs.i ]
  %12 = load ptr, ptr %decompressor, align 8
  %13 = load i32, ptr %peeked_.i, align 8
  %conv.i = zext i32 %13 to i64
  %vtable.i3 = load ptr, ptr %12, align 8
  %vfn.i4 = getelementptr inbounds i8, ptr %vtable.i3, i64 32
  %14 = load ptr, ptr %vfn.i4, align 8
  call void %14(ptr noundef nonnull align 8 dereferenceable(8) %12, i64 noundef %conv.i) #19
  ret i1 %retval.0
}